; Function Attrs: mustprogress ssp uwtable
define hidden void @_ZN6open3d13visualization4glsl11ImageShader7ReleaseEv(ptr noundef nonnull align 8 dereferenceable(112) %0) unnamed_addr #1 align 2 {
  %2 = getelementptr inbounds nuw i8, ptr %0, i64 33
  %3 = load i8, ptr %2, align 1, !tbaa !30, !range !31, !noundef !32
  %4 = trunc nuw i8 %3 to i1
  br i1 %4, label %5, label %_ZN6open3d13visualization4glsl11ImageShader14UnbindGeometryEv.exit

5:                                                ; preds = %1
  %6 = load ptr, ptr @__glewDeleteBuffers, align 8, !tbaa !16
  %7 = getelementptr inbounds nuw i8, ptr %0, i64 76
  tail call void %6(i32 noundef 1, ptr noundef nonnull %7)
  %8 = load ptr, ptr @__glewDeleteBuffers, align 8, !tbaa !16
  %9 = getelementptr inbounds nuw i8, ptr %0, i64 84
  tail call void %8(i32 noundef 1, ptr noundef nonnull %9)
  %10 = getelementptr inbounds nuw i8, ptr %0, i64 92
  tail call void @glDeleteTextures(i32 noundef 1, ptr noundef nonnull %10)
  store i8 0, ptr %2, align 1, !tbaa !30
  br label %_ZN6open3d13visualization4glsl11ImageShader14UnbindGeometryEv.exit

_ZN6open3d13visualization4glsl11ImageShader14UnbindGeometryEv.exit: ; preds = %1, %5
  tail call void @_ZN6open3d13visualization4glsl13ShaderWrapper14ReleaseProgramEv(ptr noundef nonnull align 8 dereferenceable(72) %0)
  ret void
}